; ModuleID = '5/369.c'
source_filename = "5/369.c"
target datalayout = "e-m:e-p270:32:32-p271:32:32-p272:64:64-i64:64-f80:128-n8:16:32:64-S128"
target triple = "x86_64-pc-linux-gnu"

@.str = private unnamed_addr constant [5 x i8] c"%lf\0A\00", align 1
@.str.1 = private unnamed_addr constant [4 x i8] c"%s\0A\00", align 1
@.str.2 = private unnamed_addr constant [6 x i8] c"error\00", align 1
@.str.3 = private unnamed_addr constant [3 x i8] c"no\00", align 1
@.str.4 = private unnamed_addr constant [4 x i8] c"yes\00", align 1

; Function Attrs: noinline nounwind uwtable
define dso_local i32 @main() #0 {
  %1 = alloca i32, align 4
  %2 = alloca i32, align 4
  %3 = alloca i32, align 4
  %4 = alloca i32, align 4
  %5 = alloca double, align 8
  %6 = alloca [501 x i8], align 16
  %7 = alloca [501 x i8], align 16
  store i32 0, i32* %1, align 4
  store i32 0, i32* %3, align 4
  store i32 0, i32* %4, align 4
  %8 = call i32 (i8*, ...) @__isoc99_scanf(i8* getelementptr inbounds ([5 x i8], [5 x i8]* @.str, i64 0, i64 0), double* %5)
  %9 = call i32 (i8*, ...) @__isoc99_scanf(i8* getelementptr inbounds ([4 x i8], [4 x i8]* @.str.1, i64 0, i64 0), [501 x i8]* %6)
  %10 = call i32 (i8*, ...) @__isoc99_scanf(i8* getelementptr inbounds ([4 x i8], [4 x i8]* @.str.1, i64 0, i64 0), [501 x i8]* %7)
  store i32 0, i32* %2, align 4
  br label %11

11:                                               ; preds = %48, %0
  %12 = load i32, i32* %2, align 4
  %13 = sext i32 %12 to i64
  %14 = getelementptr inbounds [501 x i8], [501 x i8]* %6, i64 0, i64 0
  %15 = call i64 @strlen(i8* %14) #3
  %16 = icmp ult i64 %13, %15
  br i1 %16, label %17, label %51

17:                                               ; preds = %11
  %18 = load i32, i32* %2, align 4
  %19 = sext i32 %18 to i64
  %20 = getelementptr inbounds [501 x i8], [501 x i8]* %6, i64 0, i64 %19
  %21 = load i8, i8* %20, align 1
  %22 = sext i8 %21 to i32
  %23 = icmp ne i32 %22, 65
  br i1 %23, label %24, label %47

24:                                               ; preds = %17
  %25 = load i32, i32* %2, align 4
  %26 = sext i32 %25 to i64
  %27 = getelementptr inbounds [501 x i8], [501 x i8]* %6, i64 0, i64 %26
  %28 = load i8, i8* %27, align 1
  %29 = sext i8 %28 to i32
  %30 = icmp ne i32 %29, 84
  br i1 %30, label %31, label %47

31:                                               ; preds = %24
  %32 = load i32, i32* %2, align 4
  %33 = sext i32 %32 to i64
  %34 = getelementptr inbounds [501 x i8], [501 x i8]* %6, i64 0, i64 %33
  %35 = load i8, i8* %34, align 1
  %36 = sext i8 %35 to i32
  %37 = icmp ne i32 %36, 71
  br i1 %37, label %38, label %47

38:                                               ; preds = %31
  %39 = load i32, i32* %2, align 4
  %40 = sext i32 %39 to i64
  %41 = getelementptr inbounds [501 x i8], [501 x i8]* %6, i64 0, i64 %40
  %42 = load i8, i8* %41, align 1
  %43 = sext i8 %42 to i32
  %44 = icmp ne i32 %43, 67
  br i1 %44, label %45, label %47

45:                                               ; preds = %38
  %46 = call i32 (i8*, ...) @printf(i8* getelementptr inbounds ([6 x i8], [6 x i8]* @.str.2, i64 0, i64 0))
  store i32 1, i32* %4, align 4
  br label %51

47:                                               ; preds = %38, %31, %24, %17
  br label %48

48:                                               ; preds = %47
  %49 = load i32, i32* %2, align 4
  %50 = add nsw i32 %49, 1
  store i32 %50, i32* %2, align 4
  br label %11

51:                                               ; preds = %45, %11
  %52 = getelementptr inbounds [501 x i8], [501 x i8]* %6, i64 0, i64 0
  %53 = call i64 @strlen(i8* %52) #3
  %54 = getelementptr inbounds [501 x i8], [501 x i8]* %7, i64 0, i64 0
  %55 = call i64 @strlen(i8* %54) #3
  %56 = icmp eq i64 %53, %55
  br i1 %56, label %57, label %102

57:                                               ; preds = %51
  %58 = load i32, i32* %4, align 4
  %59 = icmp eq i32 %58, 0
  br i1 %59, label %60, label %102

60:                                               ; preds = %57
  store i32 0, i32* %2, align 4
  br label %61

61:                                               ; preds = %83, %60
  %62 = load i32, i32* %2, align 4
  %63 = sext i32 %62 to i64
  %64 = getelementptr inbounds [501 x i8], [501 x i8]* %6, i64 0, i64 0
  %65 = call i64 @strlen(i8* %64) #3
  %66 = icmp ult i64 %63, %65
  br i1 %66, label %67, label %86

67:                                               ; preds = %61
  %68 = load i32, i32* %2, align 4
  %69 = sext i32 %68 to i64
  %70 = getelementptr inbounds [501 x i8], [501 x i8]* %6, i64 0, i64 %69
  %71 = load i8, i8* %70, align 1
  %72 = sext i8 %71 to i32
  %73 = load i32, i32* %2, align 4
  %74 = sext i32 %73 to i64
  %75 = getelementptr inbounds [501 x i8], [501 x i8]* %7, i64 0, i64 %74
  %76 = load i8, i8* %75, align 1
  %77 = sext i8 %76 to i32
  %78 = icmp eq i32 %72, %77
  br i1 %78, label %79, label %82

79:                                               ; preds = %67
  %80 = load i32, i32* %3, align 4
  %81 = add nsw i32 %80, 1
  store i32 %81, i32* %3, align 4
  br label %82

82:                                               ; preds = %79, %67
  br label %83

83:                                               ; preds = %82
  %84 = load i32, i32* %2, align 4
  %85 = add nsw i32 %84, 1
  store i32 %85, i32* %2, align 4
  br label %61

86:                                               ; preds = %61
  %87 = load i32, i32* %3, align 4
  %88 = mul nsw i32 100, %87
  %89 = sext i32 %88 to i64
  %90 = getelementptr inbounds [501 x i8], [501 x i8]* %6, i64 0, i64 0
  %91 = call i64 @strlen(i8* %90) #3
  %92 = udiv i64 %89, %91
  %93 = uitofp i64 %92 to double
  %94 = load double, double* %5, align 8
  %95 = fmul double 1.000000e+02, %94
  %96 = fcmp olt double %93, %95
  br i1 %96, label %97, label %99

97:                                               ; preds = %86
  %98 = call i32 (i8*, ...) @printf(i8* getelementptr inbounds ([3 x i8], [3 x i8]* @.str.3, i64 0, i64 0))
  br label %101

99:                                               ; preds = %86
  %100 = call i32 (i8*, ...) @printf(i8* getelementptr inbounds ([4 x i8], [4 x i8]* @.str.4, i64 0, i64 0))
  br label %101

101:                                              ; preds = %99, %97
  br label %114

102:                                              ; preds = %57, %51
  %103 = getelementptr inbounds [501 x i8], [501 x i8]* %6, i64 0, i64 0
  %104 = call i64 @strlen(i8* %103) #3
  %105 = getelementptr inbounds [501 x i8], [501 x i8]* %7, i64 0, i64 0
  %106 = call i64 @strlen(i8* %105) #3
  %107 = icmp ne i64 %104, %106
  br i1 %107, label %108, label %113

108:                                              ; preds = %102
  %109 = load i32, i32* %4, align 4
  %110 = icmp eq i32 %109, 0
  br i1 %110, label %111, label %113

111:                                              ; preds = %108
  %112 = call i32 (i8*, ...) @printf(i8* getelementptr inbounds ([6 x i8], [6 x i8]* @.str.2, i64 0, i64 0))
  br label %113

113:                                              ; preds = %111, %108, %102
  br label %114

114:                                              ; preds = %113, %101
  ret i32 0
}

declare dso_local i32 @__isoc99_scanf(i8*, ...) #1

; Function Attrs: nounwind readonly
declare dso_local i64 @strlen(i8*) #2

declare dso_local i32 @printf(i8*, ...) #1


!llvm.module.flags = !{!0}
!llvm.ident = !{!1}

!0 = !{i32 1, !"wchar_size", i32 4}
!1 = !{!"clang version 10.0.0-4ubuntu1 "}
